target datalayout = "e-m:e-p270:32:32-p271:32:32-p272:64:64-i64:64-i128:128-f80:128-n8:16:32:64-S128"
target triple = "x86_64-pc-linux-gnu"

%struct.Pla_Man_t_ = type { ptr, ptr, i32, i32, i32, i32, i32, %struct.Vec_Int_t_, %struct.Vec_Int_t_, %struct.Vec_Wrd_t_, %struct.Vec_Wrd_t_, %struct.Vec_Wec_t_, %struct.Vec_Wec_t_, %struct.Vec_Int_t_ }
%struct.Vec_Wrd_t_ = type { i32, i32, ptr }
%struct.Vec_Wec_t_ = type { i32, i32, ptr }
%struct.Vec_Int_t_ = type { i32, i32, ptr }
%struct.Tab_Man_t_ = type { i32, i32, ptr, ptr }
%struct.Tab_Obj_t_ = type { i32, i32, i32, i32 }

; Function Attrs: inlinehint nounwind uwtable
define internal ptr @Tab_ManBin(ptr noundef %0, i32 noundef %1) #2 {
  %3 = alloca ptr, align 8
  %4 = alloca i32, align 4
  store ptr %0, ptr %3, align 8, !tbaa !8
  store i32 %1, ptr %4, align 4, !tbaa !10
  %5 = load ptr, ptr %3, align 8, !tbaa !8
  %6 = getelementptr inbounds nuw %struct.Tab_Man_t_, ptr %5, i32 0, i32 2
  %7 = load ptr, ptr %6, align 8, !tbaa !29
  %8 = load i32, ptr %4, align 4, !tbaa !10
  %9 = load ptr, ptr %3, align 8, !tbaa !8
  %10 = getelementptr inbounds nuw %struct.Tab_Man_t_, ptr %9, i32 0, i32 0
  %11 = load i32, ptr %10, align 8, !tbaa !44
  %12 = and i32 %8, %11
  %13 = sext i32 %12 to i64
  %14 = getelementptr inbounds %struct.Tab_Obj_t_, ptr %7, i64 %13
  ret ptr %14
}

; Function Attrs: inlinehint nounwind uwtable
define internal void @Tab_ManHashInsert(ptr noundef %0, i32 noundef %1, i32 noundef %2, i32 noundef %3) #2 {
  %5 = alloca ptr, align 8
  %6 = alloca i32, align 4
  %7 = alloca i32, align 4
  %8 = alloca i32, align 4
  %9 = alloca ptr, align 8
  %10 = alloca ptr, align 8
  store ptr %0, ptr %5, align 8, !tbaa !8
  store i32 %1, ptr %6, align 4, !tbaa !10
  store i32 %2, ptr %7, align 4, !tbaa !10
  store i32 %3, ptr %8, align 4, !tbaa !10
  call void @llvm.lifetime.start.p0(i64 8, ptr %9) #11
  %11 = load ptr, ptr %5, align 8, !tbaa !8
  %12 = load i32, ptr %6, align 4, !tbaa !10
  %13 = call ptr @Tab_ManBin(ptr noundef %11, i32 noundef %12)
  store ptr %13, ptr %9, align 8, !tbaa !27
  call void @llvm.lifetime.start.p0(i64 8, ptr %10) #11
  %14 = load ptr, ptr %5, align 8, !tbaa !8
  %15 = getelementptr inbounds nuw %struct.Tab_Man_t_, ptr %14, i32 0, i32 2
  %16 = load ptr, ptr %15, align 8, !tbaa !29
  %17 = load ptr, ptr %5, align 8, !tbaa !8
  %18 = getelementptr inbounds nuw %struct.Tab_Man_t_, ptr %17, i32 0, i32 1
  %19 = load i32, ptr %18, align 4, !tbaa !31
  %20 = sext i32 %19 to i64
  %21 = getelementptr inbounds %struct.Tab_Obj_t_, ptr %16, i64 %20
  store ptr %21, ptr %10, align 8, !tbaa !27
  %22 = load i32, ptr %7, align 4, !tbaa !10
  %23 = load ptr, ptr %10, align 8, !tbaa !27
  %24 = getelementptr inbounds nuw %struct.Tab_Obj_t_, ptr %23, i32 0, i32 2
  store i32 %22, ptr %24, align 4, !tbaa !32
  %25 = load i32, ptr %8, align 4, !tbaa !10
  %26 = load ptr, ptr %10, align 8, !tbaa !27
  %27 = getelementptr inbounds nuw %struct.Tab_Obj_t_, ptr %26, i32 0, i32 3
  %28 = load i32, ptr %27, align 4
  %29 = and i32 %25, 65535
  %30 = and i32 %28, -65536
  %31 = or i32 %30, %29
  store i32 %31, ptr %27, align 4
  %32 = load ptr, ptr %9, align 8, !tbaa !27
  %33 = getelementptr inbounds nuw %struct.Tab_Obj_t_, ptr %32, i32 0, i32 0
  %34 = load i32, ptr %33, align 4, !tbaa !34
  %35 = load ptr, ptr %10, align 8, !tbaa !27
  %36 = getelementptr inbounds nuw %struct.Tab_Obj_t_, ptr %35, i32 0, i32 1
  store i32 %34, ptr %36, align 4, !tbaa !35
  %37 = load ptr, ptr %5, align 8, !tbaa !8
  %38 = getelementptr inbounds nuw %struct.Tab_Man_t_, ptr %37, i32 0, i32 1
  %39 = load i32, ptr %38, align 4, !tbaa !31
  %40 = add nsw i32 %39, 1
  store i32 %40, ptr %38, align 4, !tbaa !31
  %41 = load ptr, ptr %9, align 8, !tbaa !27
  %42 = getelementptr inbounds nuw %struct.Tab_Obj_t_, ptr %41, i32 0, i32 0
  store i32 %39, ptr %42, align 4, !tbaa !34
  call void @llvm.lifetime.end.p0(i64 8, ptr %10) #11
  call void @llvm.lifetime.end.p0(i64 8, ptr %9) #11
  ret void
}

; Function Attrs: inlinehint nounwind uwtable
define internal i32 @Pla_HashValue(i32 noundef %0) #2 {
  %2 = alloca i32, align 4
  store i32 %0, ptr %2, align 4, !tbaa !10
  %3 = load i32, ptr %2, align 4, !tbaa !10
  %4 = sext i32 %3 to i64
  %5 = getelementptr inbounds [256 x i32], ptr @s_PlaHashValues, i64 0, i64 %4
  %6 = load i32, ptr %5, align 4, !tbaa !10
  %7 = and i32 %6, 67108863
  ret i32 %7
}

; Function Attrs: inlinehint nounwind uwtable
define internal i32 @Vec_IntEntry(ptr noundef %0, i32 noundef %1) #2 {
  %3 = alloca ptr, align 8
  %4 = alloca i32, align 4
  store ptr %0, ptr %3, align 8, !tbaa !12
  store i32 %1, ptr %4, align 4, !tbaa !10
  %5 = load ptr, ptr %3, align 8, !tbaa !12
  %6 = getelementptr inbounds nuw %struct.Vec_Int_t_, ptr %5, i32 0, i32 2
  %7 = load ptr, ptr %6, align 8, !tbaa !20
  %8 = load i32, ptr %4, align 4, !tbaa !10
  %9 = sext i32 %8 to i64
  %10 = getelementptr inbounds i32, ptr %7, i64 %9
  %11 = load i32, ptr %10, align 4, !tbaa !10
  ret i32 %11
}

; Function Attrs: inlinehint nounwind uwtable
define internal i32 @Vec_IntSize(ptr noundef %0) #2 {
  %2 = alloca ptr, align 8
  store ptr %0, ptr %2, align 8, !tbaa !12
  %3 = load ptr, ptr %2, align 8, !tbaa !12
  %4 = getelementptr inbounds nuw %struct.Vec_Int_t_, ptr %3, i32 0, i32 1
  %5 = load i32, ptr %4, align 4, !tbaa !16
  ret i32 %5
}

; Function Attrs: inlinehint nounwind uwtable
define internal i32 @Pla_CubeHashValue(ptr noundef %0) #2 {
  %2 = alloca ptr, align 8
  %3 = alloca i32, align 4
  %4 = alloca i32, align 4
  %5 = alloca i32, align 4
  store ptr %0, ptr %2, align 8, !tbaa !12
  call void @llvm.lifetime.start.p0(i64 4, ptr %3) #11
  call void @llvm.lifetime.start.p0(i64 4, ptr %4) #11
  call void @llvm.lifetime.start.p0(i64 4, ptr %5) #11
  store i32 0, ptr %5, align 4, !tbaa !10
  store i32 0, ptr %3, align 4, !tbaa !10
  br label %6

6:                                                ; preds = %22, %1
  %7 = load i32, ptr %3, align 4, !tbaa !10
  %8 = load ptr, ptr %2, align 8, !tbaa !12
  %9 = call i32 @Vec_IntSize(ptr noundef %8)
  %10 = icmp slt i32 %7, %9
  br i1 %10, label %11, label %15

11:                                               ; preds = %6
  %12 = load ptr, ptr %2, align 8, !tbaa !12
  %13 = load i32, ptr %3, align 4, !tbaa !10
  %14 = call i32 @Vec_IntEntry(ptr noundef %12, i32 noundef %13)
  store i32 %14, ptr %4, align 4, !tbaa !10
  br label %15

15:                                               ; preds = %11, %6
  %16 = phi i1 [ false, %6 ], [ true, %11 ]
  br i1 %16, label %17, label %25

17:                                               ; preds = %15
  %18 = load i32, ptr %4, align 4, !tbaa !10
  %19 = call i32 @Pla_HashValue(i32 noundef %18)
  %20 = load i32, ptr %5, align 4, !tbaa !10
  %21 = add nsw i32 %20, %19
  store i32 %21, ptr %5, align 4, !tbaa !10
  br label %22

22:                                               ; preds = %17
  %23 = load i32, ptr %3, align 4, !tbaa !10
  %24 = add nsw i32 %23, 1
  store i32 %24, ptr %3, align 4, !tbaa !10
  br label %6, !llvm.loop !26

25:                                               ; preds = %15
  %26 = load i32, ptr %5, align 4, !tbaa !10
  call void @llvm.lifetime.end.p0(i64 4, ptr %5) #11
  call void @llvm.lifetime.end.p0(i64 4, ptr %4) #11
  call void @llvm.lifetime.end.p0(i64 4, ptr %3) #11
  ret i32 %26
}

; Function Attrs: inlinehint nounwind uwtable
define internal ptr @Vec_WecEntry(ptr noundef %0, i32 noundef %1) #2 {
  %3 = alloca ptr, align 8
  %4 = alloca i32, align 4
  store ptr %0, ptr %3, align 8, !tbaa !21
  store i32 %1, ptr %4, align 4, !tbaa !10
  %5 = load ptr, ptr %3, align 8, !tbaa !21
  %6 = getelementptr inbounds nuw %struct.Vec_Wec_t_, ptr %5, i32 0, i32 2
  %7 = load ptr, ptr %6, align 8, !tbaa !25
  %8 = load i32, ptr %4, align 4, !tbaa !10
  %9 = sext i32 %8 to i64
  %10 = getelementptr inbounds %struct.Vec_Int_t_, ptr %7, i64 %9
  ret ptr %10
}

; Function Attrs: inlinehint nounwind uwtable
define internal i32 @Vec_WecSize(ptr noundef %0) #2 {
  %2 = alloca ptr, align 8
  store ptr %0, ptr %2, align 8, !tbaa !21
  %3 = load ptr, ptr %2, align 8, !tbaa !21
  %4 = getelementptr inbounds nuw %struct.Vec_Wec_t_, ptr %3, i32 0, i32 1
  %5 = load i32, ptr %4, align 4, !tbaa !23
  ret i32 %5
}

; Function Attrs: nounwind uwtable
define void @Pla_ManHashCubes2(ptr noundef %0, ptr noundef %1) #0 {
  %3 = alloca ptr, align 8
  %4 = alloca ptr, align 8
  %5 = alloca ptr, align 8
  %6 = alloca i32, align 4
  %7 = alloca i32, align 4
  %8 = alloca i32, align 4
  %9 = alloca i32, align 4
  store ptr %0, ptr %3, align 8, !tbaa !3
  store ptr %1, ptr %4, align 8, !tbaa !8
  call void @llvm.lifetime.start.p0(i64 8, ptr %5) #11
  call void @llvm.lifetime.start.p0(i64 4, ptr %6) #11
  call void @llvm.lifetime.start.p0(i64 4, ptr %7) #11
  call void @llvm.lifetime.start.p0(i64 4, ptr %8) #11
  call void @llvm.lifetime.start.p0(i64 4, ptr %9) #11
  store i32 0, ptr %6, align 4, !tbaa !10
  br label %10

10:                                               ; preds = %54, %2
  %11 = load i32, ptr %6, align 4, !tbaa !10
  %12 = load ptr, ptr %3, align 8, !tbaa !3
  %13 = getelementptr inbounds nuw %struct.Pla_Man_t_, ptr %12, i32 0, i32 11
  %14 = call i32 @Vec_WecSize(ptr noundef %13)
  %15 = icmp slt i32 %11, %14
  br i1 %15, label %16, label %21

16:                                               ; preds = %10
  %17 = load ptr, ptr %3, align 8, !tbaa !3
  %18 = getelementptr inbounds nuw %struct.Pla_Man_t_, ptr %17, i32 0, i32 11
  %19 = load i32, ptr %6, align 4, !tbaa !10
  %20 = call ptr @Vec_WecEntry(ptr noundef %18, i32 noundef %19)
  store ptr %20, ptr %5, align 8, !tbaa !12
  br label %21

21:                                               ; preds = %16, %10
  %22 = phi i1 [ false, %10 ], [ true, %16 ]
  br i1 %22, label %23, label %57

23:                                               ; preds = %21
  %24 = load ptr, ptr %5, align 8, !tbaa !12
  %25 = call i32 @Pla_CubeHashValue(ptr noundef %24)
  store i32 %25, ptr %9, align 4, !tbaa !10
  store i32 0, ptr %7, align 4, !tbaa !10
  br label %26

26:                                               ; preds = %50, %23
  %27 = load i32, ptr %7, align 4, !tbaa !10
  %28 = load ptr, ptr %5, align 8, !tbaa !12
  %29 = call i32 @Vec_IntSize(ptr noundef %28)
  %30 = icmp slt i32 %27, %29
  br i1 %30, label %31, label %35

31:                                               ; preds = %26
  %32 = load ptr, ptr %5, align 8, !tbaa !12
  %33 = load i32, ptr %7, align 4, !tbaa !10
  %34 = call i32 @Vec_IntEntry(ptr noundef %32, i32 noundef %33)
  store i32 %34, ptr %8, align 4, !tbaa !10
  br label %35

35:                                               ; preds = %31, %26
  %36 = phi i1 [ false, %26 ], [ true, %31 ]
  br i1 %36, label %37, label %53

37:                                               ; preds = %35
  %38 = load i32, ptr %8, align 4, !tbaa !10
  %39 = call i32 @Pla_HashValue(i32 noundef %38)
  %40 = load i32, ptr %9, align 4, !tbaa !10
  %41 = sub nsw i32 %40, %39
  store i32 %41, ptr %9, align 4, !tbaa !10
  %42 = load ptr, ptr %4, align 8, !tbaa !8
  %43 = load i32, ptr %9, align 4, !tbaa !10
  %44 = load i32, ptr %6, align 4, !tbaa !10
  %45 = load i32, ptr %7, align 4, !tbaa !10
  call void @Tab_ManHashInsert(ptr noundef %42, i32 noundef %43, i32 noundef %44, i32 noundef %45)
  %46 = load i32, ptr %8, align 4, !tbaa !10
  %47 = call i32 @Pla_HashValue(i32 noundef %46)
  %48 = load i32, ptr %9, align 4, !tbaa !10
  %49 = add nsw i32 %48, %47
  store i32 %49, ptr %9, align 4, !tbaa !10
  br label %50

50:                                               ; preds = %37
  %51 = load i32, ptr %7, align 4, !tbaa !10
  %52 = add nsw i32 %51, 1
  store i32 %52, ptr %7, align 4, !tbaa !10
  br label %26, !llvm.loop !61

53:                                               ; preds = %35
  br label %54

54:                                               ; preds = %53
  %55 = load i32, ptr %6, align 4, !tbaa !10
  %56 = add nsw i32 %55, 1
  store i32 %56, ptr %6, align 4, !tbaa !10
  br label %10, !llvm.loop !62

57:                                               ; preds = %21
  call void @llvm.lifetime.end.p0(i64 4, ptr %9) #11
  call void @llvm.lifetime.end.p0(i64 4, ptr %8) #11
  call void @llvm.lifetime.end.p0(i64 4, ptr %7) #11
  call void @llvm.lifetime.end.p0(i64 4, ptr %6) #11
  call void @llvm.lifetime.end.p0(i64 8, ptr %5) #11
  ret void
}