; Function Attrs: nofree norecurse nosync nounwind memory(readwrite, inaccessiblemem: none) uwtable
define void @Pla_ManHashCubes2(ptr noundef readonly captures(none) %0, ptr noundef captures(none) %1) local_unnamed_addr #4 {
  %3 = getelementptr i8, ptr %0, i64 108
  %.val2228 = load i32, ptr %3, align 4, !tbaa !12
  %4 = icmp sgt i32 %.val2228, 0
  br i1 %4, label %.lr.ph30, label %.critedge

.lr.ph30:                                         ; preds = %2
  %5 = getelementptr i8, ptr %0, i64 112
  %6 = getelementptr i8, ptr %1, i64 8
  %7 = getelementptr inbounds nuw i8, ptr %1, i64 4
  br label %8

8:                                                ; preds = %.lr.ph30, %.critedge2
  %.val2235 = phi i32 [ %.val2228, %.lr.ph30 ], [ %.val22, %.critedge2 ]
  %indvars.iv32 = phi i64 [ 0, %.lr.ph30 ], [ %indvars.iv.next33, %.critedge2 ]
  %.val23 = load ptr, ptr %5, align 8, !tbaa !15
  %9 = getelementptr inbounds nuw %struct.Vec_Int_t_, ptr %.val23, i64 %indvars.iv32
  %10 = getelementptr i8, ptr %9, i64 4
  %.val.i = load i32, ptr %10, align 4, !tbaa !3
  %11 = icmp sgt i32 %.val.i, 0
  br i1 %11, label %.lr.ph.i, label %.critedge2

.lr.ph.i:                                         ; preds = %8
  %12 = getelementptr i8, ptr %9, i64 8
  %.val8.i = load ptr, ptr %12, align 8, !tbaa !11
  %wide.trip.count.i = zext nneg i32 %.val.i to i64
  br label %13

13:                                               ; preds = %13, %.lr.ph.i
  %indvars.iv.i = phi i64 [ 0, %.lr.ph.i ], [ %indvars.iv.next.i, %13 ]
  %.010.i = phi i32 [ 0, %.lr.ph.i ], [ %20, %13 ]
  %14 = getelementptr inbounds nuw i32, ptr %.val8.i, i64 %indvars.iv.i
  %15 = load i32, ptr %14, align 4, !tbaa !16
  %16 = sext i32 %15 to i64
  %17 = getelementptr inbounds [256 x i32], ptr @s_PlaHashValues, i64 0, i64 %16
  %18 = load i32, ptr %17, align 4, !tbaa !16
  %19 = and i32 %18, 67108863
  %20 = add nuw nsw i32 %19, %.010.i
  %indvars.iv.next.i = add nuw nsw i64 %indvars.iv.i, 1
  %exitcond.not.i = icmp eq i64 %indvars.iv.next.i, %wide.trip.count.i
  br i1 %exitcond.not.i, label %.lr.ph, label %13, !llvm.loop !17

.lr.ph:                                           ; preds = %13
  %21 = getelementptr i8, ptr %9, i64 8
  %.pre = load i32, ptr %7, align 4, !tbaa !24
  %22 = trunc nuw nsw i64 %indvars.iv32 to i32
  br label %23

23:                                               ; preds = %.lr.ph, %23
  %24 = phi i32 [ %.pre, %.lr.ph ], [ %47, %23 ]
  %indvars.iv = phi i64 [ 0, %.lr.ph ], [ %indvars.iv.next, %23 ]
  %.val24 = load ptr, ptr %21, align 8, !tbaa !11
  %25 = getelementptr inbounds nuw i32, ptr %.val24, i64 %indvars.iv
  %26 = load i32, ptr %25, align 4, !tbaa !16
  %27 = sext i32 %26 to i64
  %28 = getelementptr inbounds [256 x i32], ptr @s_PlaHashValues, i64 0, i64 %27
  %29 = load i32, ptr %28, align 4, !tbaa !16
  %30 = and i32 %29, 67108863
  %31 = sub nsw i32 %20, %30
  %.val.i25 = load i32, ptr %1, align 8, !tbaa !19
  %.val11.i = load ptr, ptr %6, align 8, !tbaa !23
  %32 = and i32 %31, %.val.i25
  %33 = sext i32 %32 to i64
  %34 = getelementptr inbounds %struct.Tab_Obj_t_, ptr %.val11.i, i64 %33
  %35 = sext i32 %24 to i64
  %36 = getelementptr inbounds %struct.Tab_Obj_t_, ptr %.val11.i, i64 %35
  %37 = getelementptr inbounds nuw i8, ptr %36, i64 8
  store i32 %22, ptr %37, align 4, !tbaa !25
  %38 = getelementptr inbounds nuw i8, ptr %36, i64 12
  %39 = load i32, ptr %38, align 4
  %40 = trunc nuw nsw i64 %indvars.iv to i32
  %41 = and i32 %40, 65535
  %42 = and i32 %39, -65536
  %43 = or disjoint i32 %42, %41
  store i32 %43, ptr %38, align 4
  %44 = load i32, ptr %34, align 4, !tbaa !27
  %45 = getelementptr inbounds nuw i8, ptr %36, i64 4
  store i32 %44, ptr %45, align 4, !tbaa !28
  %46 = load i32, ptr %7, align 4, !tbaa !24
  %47 = add nsw i32 %46, 1
  store i32 %47, ptr %7, align 4, !tbaa !24
  store i32 %46, ptr %34, align 4, !tbaa !27
  %indvars.iv.next = add nuw nsw i64 %indvars.iv, 1
  %.val = load i32, ptr %10, align 4, !tbaa !3
  %48 = sext i32 %.val to i64
  %49 = icmp slt i64 %indvars.iv.next, %48
  br i1 %49, label %23, label %.critedge2.loopexit, !llvm.loop !49

.critedge2.loopexit:                              ; preds = %23
  %.val22.pre = load i32, ptr %3, align 4, !tbaa !12
  br label %.critedge2

.critedge2:                                       ; preds = %8, %.critedge2.loopexit
  %.val22 = phi i32 [ %.val22.pre, %.critedge2.loopexit ], [ %.val2235, %8 ]
  %indvars.iv.next33 = add nuw nsw i64 %indvars.iv32, 1
  %50 = sext i32 %.val22 to i64
  %51 = icmp slt i64 %indvars.iv.next33, %50
  br i1 %51, label %8, label %.critedge, !llvm.loop !50

.critedge:                                        ; preds = %.critedge2, %2
  ret void
}